target datalayout = "e-m:e-p270:32:32-p271:32:32-p272:64:64-i64:64-i128:128-f80:128-n8:16:32:64-S128"
target triple = "x86_64-pc-linux-gnu"

%struct.rb_code_location_struct = type { %struct.rb_code_position_struct, %struct.rb_code_position_struct }
%struct.rb_code_position_struct = type { i32, i32 }
%struct.rb_data_type_struct = type { ptr, %struct.anon.36, ptr, ptr, i64 }
%struct.anon.36 = type { ptr, ptr, ptr, ptr, [1 x ptr] }
%struct.rb_iseq_struct = type { i64, i64, ptr, %union.anon.13 }
%union.anon.13 = type { %struct.anon.14 }
%struct.anon.14 = type { i64, i32 }
%struct.rb_iseq_constant_body = type { i32, i32, ptr, %struct.anon.16, %struct.rb_iseq_location_struct, %struct.iseq_insn_info, ptr, ptr, ptr, ptr, ptr, ptr, %struct.anon.17, i32, i32, i32, i32, i32, i32, i32, i32, i8, %union.anon.18, ptr, ptr, ptr, i64, ptr, i64, ptr, i64 }
%struct.anon.16 = type { %struct.anon, i32, i32, i32, i32, i32, i32, i32, ptr, ptr }
%struct.anon = type { i16, [2 x i8] }
%struct.rb_iseq_location_struct = type { i64, i64, i64, i32, i32, %struct.rb_code_location_struct }
%struct.iseq_insn_info = type { ptr, ptr, i32, ptr }
%struct.anon.17 = type { i64, i64, i64, i64, ptr }
%union.anon.18 = type { ptr }
%struct.RBasic = type { i64, i64 }
%struct.iseq_catch_table = type <{ i32, [0 x %struct.iseq_catch_table_entry] }>
%struct.iseq_catch_table_entry = type { i32, ptr, i32, i32, i32, i32 }
%struct.st_table = type { i8, i8, i8, i32, ptr, i64, ptr, i64, i64, ptr }

@rb_eTypeError = external global i64, align 8
@iseqw_data_type = internal constant %struct.rb_data_type_struct { ptr @.str.157, %struct.anon.36 { ptr @iseqw_mark, ptr inttoptr (i64 -1 to ptr), ptr @iseqw_memsize, ptr @iseqw_ref_update, [1 x ptr] zeroinitializer }, ptr null, ptr null, i64 33 }, align 8
@.str.158 = private unnamed_addr constant [34 x i8] c"uninitialized InstructionSequence\00", align 1

; Function Attrs: inlinehint nounwind sspstrong uwtable
define internal nonnull ptr @RHASH_ST_TABLE(i64 noundef %0) #5 {
  %2 = alloca i64, align 8
  store i64 %0, ptr %2, align 8, !tbaa !17
  %3 = load i64, ptr %2, align 8, !tbaa !17
  %4 = add i64 %3, 24
  %5 = inttoptr i64 %4 to ptr
  ret ptr %5
}

; Function Attrs: inlinehint nounwind sspstrong willreturn memory(read) uwtable
define internal i64 @RB_FL_TEST_RAW(i64 noundef %0, i64 noundef %1) #3 {
  %3 = alloca i64, align 8
  %4 = alloca i64, align 8
  store i64 %0, ptr %3, align 8, !tbaa !17
  store i64 %1, ptr %4, align 8, !tbaa !17
  %5 = load i64, ptr %3, align 8, !tbaa !17
  %6 = inttoptr i64 %5 to ptr
  %7 = getelementptr inbounds nuw %struct.RBasic, ptr %6, i32 0, i32 0
  %8 = load i64, ptr %7, align 8, !tbaa !70
  %9 = load i64, ptr %4, align 8, !tbaa !17
  %10 = and i64 %8, %9
  ret i64 %10
}

; Function Attrs: inlinehint nounwind sspstrong uwtable
define internal i64 @RHASH_ST_SIZE(i64 noundef %0) #5 {
  %2 = alloca i64, align 8
  store i64 %0, ptr %2, align 8, !tbaa !17
  %3 = load i64, ptr %2, align 8, !tbaa !17
  %4 = call nonnull ptr @RHASH_ST_TABLE(i64 noundef %3)
  %5 = getelementptr inbounds nuw %struct.st_table, ptr %4, i32 0, i32 5
  %6 = load i64, ptr %5, align 8, !tbaa !378
  ret i64 %6
}

; Function Attrs: inlinehint nounwind sspstrong uwtable
define internal i32 @RHASH_AR_TABLE_SIZE_RAW(i64 noundef %0) #5 {
  %2 = alloca i64, align 8
  %3 = alloca i64, align 8
  store i64 %0, ptr %2, align 8, !tbaa !17
  call void @llvm.lifetime.start.p0(i64 8, ptr %3) #24
  %4 = load i64, ptr %2, align 8, !tbaa !17
  %5 = call i64 @RB_FL_TEST_RAW(i64 noundef %4, i64 noundef 983040) #25
  store i64 %5, ptr %3, align 8, !tbaa !17
  %6 = load i64, ptr %3, align 8, !tbaa !17
  %7 = lshr i64 %6, 16
  store i64 %7, ptr %3, align 8, !tbaa !17
  %8 = load i64, ptr %3, align 8, !tbaa !17
  %9 = trunc i64 %8 to i32
  call void @llvm.lifetime.end.p0(i64 8, ptr %3) #24
  ret i32 %9
}

; Function Attrs: inlinehint nounwind sspstrong uwtable
define internal zeroext i1 @RHASH_AR_TABLE_P(i64 noundef %0) #5 {
  %2 = alloca i64, align 8
  store i64 %0, ptr %2, align 8, !tbaa !17
  %3 = load i64, ptr %2, align 8, !tbaa !17
  %4 = call i64 @RB_FL_TEST_RAW(i64 noundef %3, i64 noundef 32768) #25
  %5 = icmp ne i64 %4, 0
  %6 = xor i1 %5, true
  ret i1 %6
}

; Function Attrs: inlinehint nounwind sspstrong uwtable
define internal i64 @RHASH_SIZE(i64 noundef %0) #5 {
  %2 = alloca i64, align 8
  %3 = alloca i64, align 8
  store i64 %0, ptr %3, align 8, !tbaa !17
  %4 = load i64, ptr %3, align 8, !tbaa !17
  %5 = call zeroext i1 @RHASH_AR_TABLE_P(i64 noundef %4)
  br i1 %5, label %6, label %10

6:                                                ; preds = %1
  %7 = load i64, ptr %3, align 8, !tbaa !17
  %8 = call i32 @RHASH_AR_TABLE_SIZE_RAW(i64 noundef %7)
  %9 = zext i32 %8 to i64
  store i64 %9, ptr %2, align 8
  br label %13

10:                                               ; preds = %1
  %11 = load i64, ptr %3, align 8, !tbaa !17
  %12 = call i64 @RHASH_ST_SIZE(i64 noundef %11)
  store i64 %12, ptr %2, align 8
  br label %13

13:                                               ; preds = %10, %6
  %14 = load i64, ptr %2, align 8
  ret i64 %14
}

; Function Attrs: nounwind sspstrong willreturn memory(none) uwtable
define internal ptr @insn_op_types(i64 noundef %0) #10 {
  %2 = alloca i64, align 8
  store i64 %0, ptr %2, align 8, !tbaa !17
  %3 = load i64, ptr %2, align 8, !tbaa !17
  %4 = getelementptr [220 x i16], ptr @rb_vm_insn_op_offset, i64 0, i64 %3
  %5 = load i16, ptr %4, align 2, !tbaa !283
  %6 = zext i16 %5 to i64
  %7 = getelementptr [489 x i8], ptr @rb_vm_insn_op_base, i64 0, i64 %6
  ret ptr %7
}

; Function Attrs: nounwind sspstrong willreturn memory(none) uwtable
define internal i32 @insn_len(i64 noundef %0) #10 {
  %2 = alloca i64, align 8
  store i64 %0, ptr %2, align 8, !tbaa !17
  %3 = load i64, ptr %2, align 8, !tbaa !17
  %4 = getelementptr [220 x i8], ptr @rb_vm_insn_len_info, i64 0, i64 %3
  %5 = load i8, ptr %4, align 1, !tbaa !46
  %6 = zext i8 %5 to i32
  ret i32 %6
}

; Function Attrs: inlinehint nounwind sspstrong willreturn memory(none) uwtable
define internal zeroext i1 @RB_NIL_P(i64 noundef %0) #7 {
  %2 = alloca i64, align 8
  store i64 %0, ptr %2, align 8, !tbaa !17
  %3 = load i64, ptr %2, align 8, !tbaa !17
  %4 = icmp eq i64 %3, 4
  ret i1 %4
}

; Function Attrs: nounwind sspstrong uwtable
define internal i32 @iseq_iterate_children(ptr noundef %0, ptr noundef %1, ptr noundef %2) #0 {
  %4 = alloca ptr, align 8
  %5 = alloca ptr, align 8
  %6 = alloca ptr, align 8
  %7 = alloca i32, align 4
  %8 = alloca ptr, align 8
  %9 = alloca ptr, align 8
  %10 = alloca ptr, align 8
  %11 = alloca i64, align 8
  %12 = alloca ptr, align 8
  %13 = alloca ptr, align 8
  %14 = alloca ptr, align 8
  %15 = alloca i64, align 8
  %16 = alloca i32, align 4
  %17 = alloca ptr, align 8
  %18 = alloca i32, align 4
  store ptr %0, ptr %4, align 8, !tbaa !7
  store ptr %1, ptr %5, align 8, !tbaa !104
  store ptr %2, ptr %6, align 8, !tbaa !104
  call void @llvm.lifetime.start.p0(i64 4, ptr %7) #24
  call void @llvm.lifetime.start.p0(i64 8, ptr %8) #24
  %19 = load ptr, ptr %4, align 8, !tbaa !7
  %20 = call ptr @rb_iseq_original_iseq(ptr noundef %19)
  store ptr %20, ptr %8, align 8, !tbaa !66
  call void @llvm.lifetime.start.p0(i64 8, ptr %9) #24
  %21 = load ptr, ptr %4, align 8, !tbaa !7
  %22 = getelementptr inbounds nuw %struct.rb_iseq_struct, ptr %21, i32 0, i32 2
  %23 = load ptr, ptr %22, align 8, !tbaa !12
  store ptr %23, ptr %9, align 8, !tbaa !16
  call void @llvm.lifetime.start.p0(i64 8, ptr %10) #24
  call void @llvm.lifetime.start.p0(i64 8, ptr %11) #24
  %24 = call i64 @rb_ident_hash_new()
  %25 = call i64 @rb_obj_hide(i64 noundef %24)
  store i64 %25, ptr %11, align 8, !tbaa !17
  %26 = load ptr, ptr %9, align 8, !tbaa !16
  %27 = getelementptr inbounds nuw %struct.rb_iseq_constant_body, ptr %26, i32 0, i32 7
  %28 = load ptr, ptr %27, align 8, !tbaa !43
  %29 = icmp ne ptr %28, null
  br i1 %29, label %30, label %74

30:                                               ; preds = %3
  store i32 0, ptr %7, align 4, !tbaa !56
  br label %31

31:                                               ; preds = %70, %30
  %32 = load i32, ptr %7, align 4, !tbaa !56
  %33 = load ptr, ptr %9, align 8, !tbaa !16
  %34 = getelementptr inbounds nuw %struct.rb_iseq_constant_body, ptr %33, i32 0, i32 7
  %35 = load ptr, ptr %34, align 8, !tbaa !43
  %36 = getelementptr inbounds nuw %struct.iseq_catch_table, ptr %35, i32 0, i32 0
  %37 = load i32, ptr %36, align 1, !tbaa !56
  %38 = icmp ult i32 %32, %37
  br i1 %38, label %39, label %73

39:                                               ; preds = %31
  call void @llvm.lifetime.start.p0(i64 8, ptr %12) #24
  call void @llvm.lifetime.start.p0(i64 8, ptr %13) #24
  %40 = load ptr, ptr %9, align 8, !tbaa !16
  %41 = getelementptr inbounds nuw %struct.rb_iseq_constant_body, ptr %40, i32 0, i32 7
  %42 = load ptr, ptr %41, align 8, !tbaa !43
  %43 = getelementptr inbounds nuw %struct.iseq_catch_table, ptr %42, i32 0, i32 1
  %44 = load i32, ptr %7, align 4, !tbaa !56
  %45 = zext i32 %44 to i64
  %46 = getelementptr [0 x %struct.iseq_catch_table_entry], ptr %43, i64 0, i64 %45
  store ptr %46, ptr %13, align 8, !tbaa !104
  %47 = load ptr, ptr %13, align 8, !tbaa !104
  store ptr %47, ptr %14, align 8, !tbaa !105
  call void @llvm.lifetime.end.p0(i64 8, ptr %13) #24
  %48 = load ptr, ptr %14, align 8, !tbaa !105
  store ptr %48, ptr %12, align 8, !tbaa !105
  %49 = load ptr, ptr %12, align 8, !tbaa !105
  %50 = getelementptr inbounds nuw %struct.iseq_catch_table_entry, ptr %49, i32 0, i32 1
  %51 = load ptr, ptr %50, align 8, !tbaa !107
  store ptr %51, ptr %10, align 8, !tbaa !7
  %52 = load ptr, ptr %10, align 8, !tbaa !7
  %53 = icmp ne ptr %52, null
  br i1 %53, label %54, label %69

54:                                               ; preds = %39
  %55 = load i64, ptr %11, align 8, !tbaa !17
  %56 = load ptr, ptr %10, align 8, !tbaa !7
  %57 = ptrtoint ptr %56 to i64
  %58 = call i64 @rb_hash_aref(i64 noundef %55, i64 noundef %57)
  %59 = call zeroext i1 @RB_NIL_P(i64 noundef %58) #28
  br i1 %59, label %60, label %68

60:                                               ; preds = %54
  %61 = load i64, ptr %11, align 8, !tbaa !17
  %62 = load ptr, ptr %10, align 8, !tbaa !7
  %63 = ptrtoint ptr %62 to i64
  %64 = call i64 @rb_hash_aset(i64 noundef %61, i64 noundef %63, i64 noundef 20)
  %65 = load ptr, ptr %5, align 8, !tbaa !104
  %66 = load ptr, ptr %10, align 8, !tbaa !7
  %67 = load ptr, ptr %6, align 8, !tbaa !104
  call void %65(ptr noundef %66, ptr noundef %67)
  br label %68

68:                                               ; preds = %60, %54
  br label %69

69:                                               ; preds = %68, %39
  call void @llvm.lifetime.end.p0(i64 8, ptr %12) #24
  br label %70

70:                                               ; preds = %69
  %71 = load i32, ptr %7, align 4, !tbaa !56
  %72 = add i32 %71, 1
  store i32 %72, ptr %7, align 4, !tbaa !56
  br label %31, !llvm.loop !405

73:                                               ; preds = %31
  br label %74

74:                                               ; preds = %73, %3
  store i32 0, ptr %7, align 4, !tbaa !56
  br label %75

75:                                               ; preds = %138, %74
  %76 = load i32, ptr %7, align 4, !tbaa !56
  %77 = load ptr, ptr %9, align 8, !tbaa !16
  %78 = getelementptr inbounds nuw %struct.rb_iseq_constant_body, ptr %77, i32 0, i32 1
  %79 = load i32, ptr %78, align 4, !tbaa !45
  %80 = icmp ult i32 %76, %79
  br i1 %80, label %81, label %142

81:                                               ; preds = %75
  call void @llvm.lifetime.start.p0(i64 8, ptr %15) #24
  %82 = load ptr, ptr %8, align 8, !tbaa !66
  %83 = load i32, ptr %7, align 4, !tbaa !56
  %84 = zext i32 %83 to i64
  %85 = getelementptr i64, ptr %82, i64 %84
  %86 = load i64, ptr %85, align 8, !tbaa !17
  store i64 %86, ptr %15, align 8, !tbaa !17
  call void @llvm.lifetime.start.p0(i64 4, ptr %16) #24
  %87 = load i64, ptr %15, align 8, !tbaa !17
  %88 = call i32 @insn_len(i64 noundef %87) #28
  store i32 %88, ptr %16, align 4, !tbaa !56
  call void @llvm.lifetime.start.p0(i64 8, ptr %17) #24
  %89 = load i64, ptr %15, align 8, !tbaa !17
  %90 = call ptr @insn_op_types(i64 noundef %89) #28
  store ptr %90, ptr %17, align 8, !tbaa !137
  call void @llvm.lifetime.start.p0(i64 4, ptr %18) #24
  store i32 0, ptr %18, align 4, !tbaa !56
  br label %91

91:                                               ; preds = %135, %81
  %92 = load ptr, ptr %17, align 8, !tbaa !137
  %93 = load i32, ptr %18, align 4, !tbaa !56
  %94 = sext i32 %93 to i64
  %95 = getelementptr i8, ptr %92, i64 %94
  %96 = load i8, ptr %95, align 1, !tbaa !46
  %97 = icmp ne i8 %96, 0
  br i1 %97, label %98, label %138

98:                                               ; preds = %91
  %99 = load ptr, ptr %17, align 8, !tbaa !137
  %100 = load i32, ptr %18, align 4, !tbaa !56
  %101 = sext i32 %100 to i64
  %102 = getelementptr i8, ptr %99, i64 %101
  %103 = load i8, ptr %102, align 1, !tbaa !46
  %104 = sext i8 %103 to i32
  switch i32 %104, label %133 [
    i32 83, label %105
  ]

105:                                              ; preds = %98
  %106 = load ptr, ptr %8, align 8, !tbaa !66
  %107 = load i32, ptr %7, align 4, !tbaa !56
  %108 = load i32, ptr %18, align 4, !tbaa !56
  %109 = add i32 %107, %108
  %110 = add i32 %109, 1
  %111 = zext i32 %110 to i64
  %112 = getelementptr i64, ptr %106, i64 %111
  %113 = load i64, ptr %112, align 8, !tbaa !17
  %114 = inttoptr i64 %113 to ptr
  store ptr %114, ptr %10, align 8, !tbaa !7
  %115 = load ptr, ptr %10, align 8, !tbaa !7
  %116 = icmp ne ptr %115, null
  br i1 %116, label %117, label %132

117:                                              ; preds = %105
  %118 = load i64, ptr %11, align 8, !tbaa !17
  %119 = load ptr, ptr %10, align 8, !tbaa !7
  %120 = ptrtoint ptr %119 to i64
  %121 = call i64 @rb_hash_aref(i64 noundef %118, i64 noundef %120)
  %122 = call zeroext i1 @RB_NIL_P(i64 noundef %121) #28
  br i1 %122, label %123, label %131

123:                                              ; preds = %117
  %124 = load i64, ptr %11, align 8, !tbaa !17
  %125 = load ptr, ptr %10, align 8, !tbaa !7
  %126 = ptrtoint ptr %125 to i64
  %127 = call i64 @rb_hash_aset(i64 noundef %124, i64 noundef %126, i64 noundef 20)
  %128 = load ptr, ptr %5, align 8, !tbaa !104
  %129 = load ptr, ptr %10, align 8, !tbaa !7
  %130 = load ptr, ptr %6, align 8, !tbaa !104
  call void %128(ptr noundef %129, ptr noundef %130)
  br label %131

131:                                              ; preds = %123, %117
  br label %132

132:                                              ; preds = %131, %105
  br label %134

133:                                              ; preds = %98
  br label %134

134:                                              ; preds = %133, %132
  br label %135

135:                                              ; preds = %134
  %136 = load i32, ptr %18, align 4, !tbaa !56
  %137 = add i32 %136, 1
  store i32 %137, ptr %18, align 4, !tbaa !56
  br label %91, !llvm.loop !406

138:                                              ; preds = %91
  %139 = load i32, ptr %16, align 4, !tbaa !56
  %140 = load i32, ptr %7, align 4, !tbaa !56
  %141 = add i32 %140, %139
  store i32 %141, ptr %7, align 4, !tbaa !56
  call void @llvm.lifetime.end.p0(i64 4, ptr %18) #24
  call void @llvm.lifetime.end.p0(i64 8, ptr %17) #24
  call void @llvm.lifetime.end.p0(i64 4, ptr %16) #24
  call void @llvm.lifetime.end.p0(i64 8, ptr %15) #24
  br label %75, !llvm.loop !407

142:                                              ; preds = %75
  %143 = load i64, ptr %11, align 8, !tbaa !17
  %144 = call i64 @RHASH_SIZE(i64 noundef %143)
  %145 = trunc i64 %144 to i32
  call void @llvm.lifetime.end.p0(i64 8, ptr %11) #24
  call void @llvm.lifetime.end.p0(i64 8, ptr %10) #24
  call void @llvm.lifetime.end.p0(i64 8, ptr %9) #24
  call void @llvm.lifetime.end.p0(i64 8, ptr %8) #24
  call void @llvm.lifetime.end.p0(i64 4, ptr %7) #24
  ret i32 %145
}

; Function Attrs: nounwind sspstrong uwtable
define internal ptr @iseqw_check(i64 noundef %0) #0 {
  %2 = alloca i64, align 8
  %3 = alloca ptr, align 8
  %4 = alloca ptr, align 8
  store i64 %0, ptr %2, align 8, !tbaa !17
  call void @llvm.lifetime.start.p0(i64 8, ptr %3) #24
  %5 = load i64, ptr %2, align 8, !tbaa !17
  %6 = call ptr @rb_check_typeddata(i64 noundef %5, ptr noundef @iseqw_data_type)
  store ptr %6, ptr %3, align 8, !tbaa !258
  call void @llvm.lifetime.start.p0(i64 8, ptr %4) #24
  %7 = load ptr, ptr %3, align 8, !tbaa !258
  %8 = load ptr, ptr %7, align 8, !tbaa !7
  store ptr %8, ptr %4, align 8, !tbaa !7
  %9 = load ptr, ptr %4, align 8, !tbaa !7
  %10 = getelementptr inbounds nuw %struct.rb_iseq_struct, ptr %9, i32 0, i32 2
  %11 = load ptr, ptr %10, align 8, !tbaa !12
  %12 = icmp ne ptr %11, null
  br i1 %12, label %15, label %13

13:                                               ; preds = %1
  %14 = load ptr, ptr %4, align 8, !tbaa !7
  call void @rb_ibf_load_iseq_complete(ptr noundef %14)
  br label %15

15:                                               ; preds = %13, %1
  %16 = load ptr, ptr %4, align 8, !tbaa !7
  %17 = getelementptr inbounds nuw %struct.rb_iseq_struct, ptr %16, i32 0, i32 2
  %18 = load ptr, ptr %17, align 8, !tbaa !12
  %19 = getelementptr inbounds nuw %struct.rb_iseq_constant_body, ptr %18, i32 0, i32 4
  %20 = getelementptr inbounds nuw %struct.rb_iseq_location_struct, ptr %19, i32 0, i32 2
  %21 = load i64, ptr %20, align 8, !tbaa !223
  %22 = icmp ne i64 %21, 0
  br i1 %22, label %25, label %23

23:                                               ; preds = %15
  %24 = load i64, ptr @rb_eTypeError, align 8, !tbaa !17
  call void (i64, ptr, ...) @rb_raise(i64 noundef %24, ptr noundef @.str.158) #26
  unreachable

25:                                               ; preds = %15
  %26 = load ptr, ptr %4, align 8, !tbaa !7
  call void @llvm.lifetime.end.p0(i64 8, ptr %4) #24
  call void @llvm.lifetime.end.p0(i64 8, ptr %3) #24
  ret ptr %26
}

; Function Attrs: nounwind sspstrong uwtable
define internal i64 @iseqw_each_child(i64 noundef %0) #0 {
  %2 = alloca i64, align 8
  %3 = alloca ptr, align 8
  store i64 %0, ptr %2, align 8, !tbaa !17
  call void @llvm.lifetime.start.p0(i64 8, ptr %3) #24
  %4 = load i64, ptr %2, align 8, !tbaa !17
  %5 = call ptr @iseqw_check(i64 noundef %4)
  store ptr %5, ptr %3, align 8, !tbaa !7
  %6 = load ptr, ptr %3, align 8, !tbaa !7
  %7 = call i32 @iseq_iterate_children(ptr noundef %6, ptr noundef @yield_each_children, ptr noundef null)
  %8 = load i64, ptr %2, align 8, !tbaa !17
  call void @llvm.lifetime.end.p0(i64 8, ptr %3) #24
  ret i64 %8
}