; Function Attrs: nounwind sspstrong uwtable
define internal noundef i64 @iseqw_each_child(i64 noundef returned %0) #0 {
  %2 = tail call ptr @rb_check_typeddata(i64 noundef %0, ptr noundef nonnull @iseqw_data_type) #20
  %3 = load ptr, ptr %2, align 8, !tbaa !244
  %4 = getelementptr inbounds nuw i8, ptr %3, i64 16
  %5 = load ptr, ptr %4, align 8, !tbaa !7
  %.not.i = icmp eq ptr %5, null
  br i1 %.not.i, label %6, label %7

6:                                                ; preds = %1
  tail call void @rb_ibf_load_iseq_complete(ptr noundef nonnull %3) #20
  %.pre.i = load ptr, ptr %4, align 8, !tbaa !7
  br label %7

7:                                                ; preds = %6, %1
  %8 = phi ptr [ %.pre.i, %6 ], [ %5, %1 ]
  %9 = getelementptr inbounds nuw i8, ptr %8, i64 80
  %10 = load i64, ptr %9, align 8, !tbaa !232
  %.not5.i = icmp eq i64 %10, 0
  br i1 %.not5.i, label %11, label %iseqw_check.exit

11:                                               ; preds = %7
  %12 = load i64, ptr @rb_eTypeError, align 8, !tbaa !42
  tail call void (i64, ptr, ...) @rb_raise(i64 noundef %12, ptr noundef nonnull @.str.158) #21
  unreachable

iseqw_check.exit:                                 ; preds = %7
  %13 = tail call ptr @rb_iseq_original_iseq(ptr noundef nonnull %3) #20
  %14 = load ptr, ptr %4, align 8, !tbaa !7
  %15 = tail call i64 @rb_ident_hash_new() #20
  %16 = tail call i64 @rb_obj_hide(i64 noundef %15) #20
  %17 = getelementptr inbounds nuw i8, ptr %14, i64 152
  %18 = load ptr, ptr %17, align 8, !tbaa !81
  %.not.i2 = icmp eq ptr %18, null
  br i1 %.not.i2, label %.loopexit.i, label %.preheader.i

.preheader.i:                                     ; preds = %iseqw_check.exit
  %19 = load i32, ptr %18, align 1, !tbaa !136
  %.not53.i = icmp eq i32 %19, 0
  br i1 %.not53.i, label %.loopexit.i, label %.lr.ph.i

.lr.ph.i:                                         ; preds = %.preheader.i, %32
  %indvars.iv.i = phi i64 [ %indvars.iv.next.i, %32 ], [ 0, %.preheader.i ]
  %20 = phi ptr [ %33, %32 ], [ %18, %.preheader.i ]
  %.idx.i = shl nuw nsw i64 %indvars.iv.i, 5
  %21 = getelementptr i8, ptr %20, i64 12
  %22 = getelementptr i8, ptr %21, i64 %.idx.i
  %23 = load ptr, ptr %22, align 8, !tbaa !137
  %.not49.i = icmp eq ptr %23, null
  br i1 %.not49.i, label %32, label %24

24:                                               ; preds = %.lr.ph.i
  %25 = ptrtoint ptr %23 to i64
  %26 = tail call i64 @rb_hash_aref(i64 noundef %16, i64 noundef %25) #20
  %27 = icmp eq i64 %26, 4
  br i1 %27, label %28, label %32

28:                                               ; preds = %24
  %29 = tail call i64 @rb_hash_aset(i64 noundef %16, i64 noundef %25, i64 noundef 20) #20
  %30 = tail call fastcc i64 @iseqw_new(ptr noundef nonnull %23)
  %31 = tail call i64 @rb_yield(i64 noundef %30) #20
  br label %32

32:                                               ; preds = %28, %24, %.lr.ph.i
  %indvars.iv.next.i = add nuw nsw i64 %indvars.iv.i, 1
  %33 = load ptr, ptr %17, align 8, !tbaa !81
  %34 = load i32, ptr %33, align 1, !tbaa !136
  %35 = zext i32 %34 to i64
  %36 = icmp samesign ult i64 %indvars.iv.next.i, %35
  br i1 %36, label %.lr.ph.i, label %.loopexit.i, !llvm.loop !351

.loopexit.i:                                      ; preds = %32, %.preheader.i, %iseqw_check.exit
  %37 = getelementptr inbounds nuw i8, ptr %14, i64 4
  %38 = load i32, ptr %37, align 4, !tbaa !83
  %.not54.i = icmp eq i32 %38, 0
  br i1 %.not54.i, label %iseq_iterate_children.exit, label %.lr.ph52.i

.lr.ph52.i:                                       ; preds = %.loopexit.i, %95
  %.151.i = phi i32 [ %97, %95 ], [ 0, %.loopexit.i ]
  %39 = zext i32 %.151.i to i64
  %40 = getelementptr i64, ptr %13, i64 %39
  %41 = load i64, ptr %40, align 8, !tbaa !42
  %42 = getelementptr [220 x i8], ptr @rb_vm_insn_len_info, i64 0, i64 %41
  %43 = load i8, ptr %42, align 1, !tbaa !84
  %44 = getelementptr [220 x i16], ptr @rb_vm_insn_op_offset, i64 0, i64 %41
  %45 = load i16, ptr %44, align 2, !tbaa !260
  %46 = zext i16 %45 to i64
  %47 = getelementptr [489 x i8], ptr @rb_vm_insn_op_base, i64 0, i64 %46
  %48 = add nuw i32 %.151.i, 1
  br label %49

49:                                               ; preds = %93, %.lr.ph52.i
  %.0.i = phi i32 [ 0, %.lr.ph52.i ], [ %94, %93 ]
  %50 = sext i32 %.0.i to i64
  %51 = getelementptr i8, ptr %47, i64 %50
  %52 = load i8, ptr %51, align 1, !tbaa !84
  switch i8 %52, label %93 [
    i8 0, label %95
    i8 83, label %53
  ]

53:                                               ; preds = %49
  %54 = add i32 %48, %.0.i
  %55 = zext i32 %54 to i64
  %56 = getelementptr i64, ptr %13, i64 %55
  %57 = load i64, ptr %56, align 8, !tbaa !42
  %58 = inttoptr i64 %57 to ptr
  %.not48.i = icmp eq i64 %57, 0
  br i1 %.not48.i, label %93, label %59

59:                                               ; preds = %53
  %60 = tail call i64 @rb_hash_aref(i64 noundef %16, i64 noundef %57) #20
  %61 = icmp eq i64 %60, 4
  br i1 %61, label %62, label %93

62:                                               ; preds = %59
  %63 = tail call i64 @rb_hash_aset(i64 noundef %16, i64 noundef %57, i64 noundef 20) #20
  %64 = getelementptr inbounds nuw i8, ptr %58, i64 8
  %65 = load i64, ptr %64, align 8, !tbaa !253
  %.not.i3 = icmp eq i64 %65, 0
  br i1 %.not.i3, label %74, label %66

66:                                               ; preds = %62
  %67 = tail call ptr @rb_check_typeddata(i64 noundef %65, ptr noundef nonnull @iseqw_data_type) #20
  %68 = load ptr, ptr %67, align 8, !tbaa !244
  %.not19.i = icmp eq ptr %68, %58
  br i1 %.not19.i, label %72, label %69

69:                                               ; preds = %66
  %70 = load i64, ptr @rb_eTypeError, align 8, !tbaa !42
  %71 = load i64, ptr %64, align 8, !tbaa !253
  tail call void (i64, ptr, ...) @rb_raise(i64 noundef %70, ptr noundef nonnull @.str.156, i64 noundef %71, ptr noundef nonnull %58) #21
  unreachable

72:                                               ; preds = %66
  %73 = load i64, ptr %64, align 8, !tbaa !253
  br label %iseqw_new.exit

74:                                               ; preds = %62
  %75 = load i64, ptr @rb_cISeq, align 8, !tbaa !42
  %76 = tail call i64 @rb_data_typed_object_zalloc(i64 noundef %75, i64 noundef 8, ptr noundef nonnull @iseqw_data_type) #20
  %77 = inttoptr i64 %76 to ptr
  %78 = getelementptr inbounds nuw i8, ptr %77, i64 24
  %79 = load i64, ptr %78, align 8, !tbaa !254
  %80 = and i64 %79, 2
  %.not.i.i = icmp eq i64 %80, 0
  %81 = getelementptr i8, ptr %77, i64 32
  br i1 %.not.i.i, label %82, label %RTYPEDDATA_GET_DATA.exit.i

82:                                               ; preds = %74
  %83 = load ptr, ptr %81, align 8, !tbaa !257
  br label %RTYPEDDATA_GET_DATA.exit.i

RTYPEDDATA_GET_DATA.exit.i:                       ; preds = %82, %74
  %84 = phi ptr [ %83, %82 ], [ %81, %74 ]
  store i64 %57, ptr %84, align 8, !tbaa !42
  %85 = and i64 %57, 7
  %.not21.i = icmp eq i64 %85, 0
  br i1 %.not21.i, label %86, label %rb_obj_write.exit.i

86:                                               ; preds = %RTYPEDDATA_GET_DATA.exit.i
  tail call void @rb_gc_writebarrier(i64 noundef %76, i64 noundef %57) #20
  br label %rb_obj_write.exit.i

rb_obj_write.exit.i:                              ; preds = %86, %RTYPEDDATA_GET_DATA.exit.i
  store i64 %76, ptr %64, align 8, !tbaa !42
  %87 = icmp eq i64 %76, 0
  %88 = and i64 %76, 7
  %89 = icmp ne i64 %88, 0
  %90 = or i1 %87, %89
  br i1 %90, label %rb_obj_write.exit20.i, label %91

91:                                               ; preds = %rb_obj_write.exit.i
  tail call void @rb_gc_writebarrier(i64 noundef %57, i64 noundef %76) #20
  br label %rb_obj_write.exit20.i

rb_obj_write.exit20.i:                            ; preds = %91, %rb_obj_write.exit.i
  tail call void @rb_obj_freeze_inline(i64 noundef %57) #20
  br label %iseqw_new.exit

iseqw_new.exit:                                   ; preds = %72, %rb_obj_write.exit20.i
  %.0.i4 = phi i64 [ %73, %72 ], [ %76, %rb_obj_write.exit20.i ]
  %92 = tail call i64 @rb_yield(i64 noundef %.0.i4) #20
  br label %93

93:                                               ; preds = %iseqw_new.exit, %59, %53, %49
  %94 = add i32 %.0.i, 1
  br label %49, !llvm.loop !352

95:                                               ; preds = %49
  %96 = zext i8 %43 to i32
  %97 = add i32 %.151.i, %96
  %98 = load i32, ptr %37, align 4, !tbaa !83
  %99 = icmp ult i32 %97, %98
  br i1 %99, label %.lr.ph52.i, label %iseq_iterate_children.exit, !llvm.loop !353

iseq_iterate_children.exit:                       ; preds = %95, %.loopexit.i
  ret i64 %0
}